target datalayout = "e-m:e-p270:32:32-p271:32:32-p272:64:64-i64:64-i128:128-f80:128-n8:16:32:64-S128"
target triple = "x86_64-pc-linux-gnu"

@.str.57 = private unnamed_addr constant [38 x i8] c"%s reindexes a PostgreSQL database.\0A\0A\00", align 1
@.str.58 = private unnamed_addr constant [8 x i8] c"Usage:\0A\00", align 1
@.str.59 = private unnamed_addr constant [27 x i8] c"  %s [OPTION]... [DBNAME]\0A\00", align 1
@.str.60 = private unnamed_addr constant [11 x i8] c"\0AOptions:\0A\00", align 1
@.str.61 = private unnamed_addr constant [54 x i8] c"  -a, --all                    reindex all databases\0A\00", align 1
@.str.62 = private unnamed_addr constant [53 x i8] c"      --concurrently           reindex concurrently\0A\00", align 1
@.str.63 = private unnamed_addr constant [52 x i8] c"  -d, --dbname=DBNAME          database to reindex\0A\00", align 1
@.str.64 = private unnamed_addr constant [75 x i8] c"  -e, --echo                   show the commands being sent to the server\0A\00", align 1
@.str.65 = private unnamed_addr constant [65 x i8] c"  -i, --index=INDEX            recreate specific index(es) only\0A\00", align 1
@.str.66 = private unnamed_addr constant [80 x i8] c"  -j, --jobs=NUM               use this many concurrent connections to reindex\0A\00", align 1
@.str.67 = private unnamed_addr constant [57 x i8] c"  -q, --quiet                  don't write any messages\0A\00", align 1
@.str.68 = private unnamed_addr constant [61 x i8] c"  -s, --system                 reindex system catalogs only\0A\00", align 1
@.str.69 = private unnamed_addr constant [64 x i8] c"  -S, --schema=SCHEMA          reindex specific schema(s) only\0A\00", align 1
@.str.70 = private unnamed_addr constant [63 x i8] c"  -t, --table=TABLE            reindex specific table(s) only\0A\00", align 1
@.str.71 = private unnamed_addr constant [69 x i8] c"      --tablespace=TABLESPACE  tablespace where indexes are rebuilt\0A\00", align 1
@.str.72 = private unnamed_addr constant [54 x i8] c"  -v, --verbose                write a lot of output\0A\00", align 1
@.str.73 = private unnamed_addr constant [70 x i8] c"  -V, --version                output version information, then exit\0A\00", align 1
@.str.74 = private unnamed_addr constant [58 x i8] c"  -?, --help                   show this help, then exit\0A\00", align 1
@.str.75 = private unnamed_addr constant [22 x i8] c"\0AConnection options:\0A\00", align 1
@.str.76 = private unnamed_addr constant [73 x i8] c"  -h, --host=HOSTNAME          database server host or socket directory\0A\00", align 1
@.str.77 = private unnamed_addr constant [53 x i8] c"  -p, --port=PORT              database server port\0A\00", align 1
@.str.78 = private unnamed_addr constant [56 x i8] c"  -U, --username=USERNAME      user name to connect as\0A\00", align 1
@.str.79 = private unnamed_addr constant [58 x i8] c"  -w, --no-password            never prompt for password\0A\00", align 1
@.str.80 = private unnamed_addr constant [54 x i8] c"  -W, --password               force password prompt\0A\00", align 1
@.str.81 = private unnamed_addr constant [63 x i8] c"  --maintenance-db=DBNAME      alternate maintenance database\0A\00", align 1
@.str.82 = private unnamed_addr constant [63 x i8] c"\0ARead the description of the SQL command REINDEX for details.\0A\00", align 1
@.str.83 = private unnamed_addr constant [23 x i8] c"\0AReport bugs to <%s>.\0A\00", align 1
@.str.84 = private unnamed_addr constant [32 x i8] c"pgsql-bugs@lists.postgresql.org\00", align 1
@.str.85 = private unnamed_addr constant [20 x i8] c"%s home page: <%s>\0A\00", align 1
@.str.86 = private unnamed_addr constant [11 x i8] c"PostgreSQL\00", align 1
@.str.87 = private unnamed_addr constant [28 x i8] c"https://www.postgresql.org/\00", align 1

; Function Attrs: nounwind uwtable
define internal void @help(ptr noundef %0) #0 {
  %2 = alloca ptr, align 8
  store ptr %0, ptr %2, align 8
  %3 = load ptr, ptr %2, align 8
  %4 = call i32 (ptr, ...) @pg_printf(ptr noundef @.str.57, ptr noundef %3)
  %5 = call i32 (ptr, ...) @pg_printf(ptr noundef @.str.58)
  %6 = load ptr, ptr %2, align 8
  %7 = call i32 (ptr, ...) @pg_printf(ptr noundef @.str.59, ptr noundef %6)
  %8 = call i32 (ptr, ...) @pg_printf(ptr noundef @.str.60)
  %9 = call i32 (ptr, ...) @pg_printf(ptr noundef @.str.61)
  %10 = call i32 (ptr, ...) @pg_printf(ptr noundef @.str.62)
  %11 = call i32 (ptr, ...) @pg_printf(ptr noundef @.str.63)
  %12 = call i32 (ptr, ...) @pg_printf(ptr noundef @.str.64)
  %13 = call i32 (ptr, ...) @pg_printf(ptr noundef @.str.65)
  %14 = call i32 (ptr, ...) @pg_printf(ptr noundef @.str.66)
  %15 = call i32 (ptr, ...) @pg_printf(ptr noundef @.str.67)
  %16 = call i32 (ptr, ...) @pg_printf(ptr noundef @.str.68)
  %17 = call i32 (ptr, ...) @pg_printf(ptr noundef @.str.69)
  %18 = call i32 (ptr, ...) @pg_printf(ptr noundef @.str.70)
  %19 = call i32 (ptr, ...) @pg_printf(ptr noundef @.str.71)
  %20 = call i32 (ptr, ...) @pg_printf(ptr noundef @.str.72)
  %21 = call i32 (ptr, ...) @pg_printf(ptr noundef @.str.73)
  %22 = call i32 (ptr, ...) @pg_printf(ptr noundef @.str.74)
  %23 = call i32 (ptr, ...) @pg_printf(ptr noundef @.str.75)
  %24 = call i32 (ptr, ...) @pg_printf(ptr noundef @.str.76)
  %25 = call i32 (ptr, ...) @pg_printf(ptr noundef @.str.77)
  %26 = call i32 (ptr, ...) @pg_printf(ptr noundef @.str.78)
  %27 = call i32 (ptr, ...) @pg_printf(ptr noundef @.str.79)
  %28 = call i32 (ptr, ...) @pg_printf(ptr noundef @.str.80)
  %29 = call i32 (ptr, ...) @pg_printf(ptr noundef @.str.81)
  %30 = call i32 (ptr, ...) @pg_printf(ptr noundef @.str.82)
  %31 = call i32 (ptr, ...) @pg_printf(ptr noundef @.str.83, ptr noundef @.str.84)
  %32 = call i32 (ptr, ...) @pg_printf(ptr noundef @.str.85, ptr noundef @.str.86, ptr noundef @.str.87)
  ret void
}