; Function Attrs: nounwind uwtable
define internal void @help(ptr noundef %0) #4 {
  %2 = tail call i32 (ptr, ...) @pg_printf(ptr noundef nonnull @.str.57, ptr noundef %0) #11
  %3 = tail call i32 (ptr, ...) @pg_printf(ptr noundef nonnull @.str.58) #11
  %4 = tail call i32 (ptr, ...) @pg_printf(ptr noundef nonnull @.str.59, ptr noundef %0) #11
  %5 = tail call i32 (ptr, ...) @pg_printf(ptr noundef nonnull @.str.60) #11
  %6 = tail call i32 (ptr, ...) @pg_printf(ptr noundef nonnull @.str.61) #11
  %7 = tail call i32 (ptr, ...) @pg_printf(ptr noundef nonnull @.str.62) #11
  %8 = tail call i32 (ptr, ...) @pg_printf(ptr noundef nonnull @.str.63) #11
  %9 = tail call i32 (ptr, ...) @pg_printf(ptr noundef nonnull @.str.64) #11
  %10 = tail call i32 (ptr, ...) @pg_printf(ptr noundef nonnull @.str.65) #11
  %11 = tail call i32 (ptr, ...) @pg_printf(ptr noundef nonnull @.str.66) #11
  %12 = tail call i32 (ptr, ...) @pg_printf(ptr noundef nonnull @.str.67) #11
  %13 = tail call i32 (ptr, ...) @pg_printf(ptr noundef nonnull @.str.68) #11
  %14 = tail call i32 (ptr, ...) @pg_printf(ptr noundef nonnull @.str.69) #11
  %15 = tail call i32 (ptr, ...) @pg_printf(ptr noundef nonnull @.str.70) #11
  %16 = tail call i32 (ptr, ...) @pg_printf(ptr noundef nonnull @.str.71) #11
  %17 = tail call i32 (ptr, ...) @pg_printf(ptr noundef nonnull @.str.72) #11
  %18 = tail call i32 (ptr, ...) @pg_printf(ptr noundef nonnull @.str.73) #11
  %19 = tail call i32 (ptr, ...) @pg_printf(ptr noundef nonnull @.str.74) #11
  %20 = tail call i32 (ptr, ...) @pg_printf(ptr noundef nonnull @.str.75) #11
  %21 = tail call i32 (ptr, ...) @pg_printf(ptr noundef nonnull @.str.76) #11
  %22 = tail call i32 (ptr, ...) @pg_printf(ptr noundef nonnull @.str.77) #11
  %23 = tail call i32 (ptr, ...) @pg_printf(ptr noundef nonnull @.str.78) #11
  %24 = tail call i32 (ptr, ...) @pg_printf(ptr noundef nonnull @.str.79) #11
  %25 = tail call i32 (ptr, ...) @pg_printf(ptr noundef nonnull @.str.80) #11
  %26 = tail call i32 (ptr, ...) @pg_printf(ptr noundef nonnull @.str.81) #11
  %27 = tail call i32 (ptr, ...) @pg_printf(ptr noundef nonnull @.str.82) #11
  %28 = tail call i32 (ptr, ...) @pg_printf(ptr noundef nonnull @.str.83, ptr noundef nonnull @.str.84) #11
  %29 = tail call i32 (ptr, ...) @pg_printf(ptr noundef nonnull @.str.85, ptr noundef nonnull @.str.86, ptr noundef nonnull @.str.87) #11
  ret void
}